target datalayout = "e-m:e-p270:32:32-p271:32:32-p272:64:64-i64:64-i128:128-f80:128-n8:16:32:64-S128"
target triple = "x86_64-pc-linux-gnu"

; Function Attrs: inlinehint mustprogress nounwind uwtable
define internal noundef signext i8 @_ZL9U_FAILURE10UErrorCode(i32 noundef %0) #4 {
  %2 = alloca i32, align 4
  store i32 %0, ptr %2, align 4, !tbaa !30
  %3 = load i32, ptr %2, align 4, !tbaa !30
  %4 = icmp sgt i32 %3, 0
  %5 = zext i1 %4 to i8
  ret i8 %5
}

; Function Attrs: mustprogress uwtable
define void @_ZN6icu_7715ChineseCalendar3addE19UCalendarDateFieldsiR10UErrorCode(ptr noundef nonnull align 8 dereferenceable(193) %0, i32 noundef %1, i32 noundef %2, ptr noundef nonnull align 4 dereferenceable(4) %3) unnamed_addr #0 align 2 {
  %5 = alloca ptr, align 8
  %6 = alloca i32, align 4
  %7 = alloca i32, align 4
  %8 = alloca ptr, align 8
  %9 = alloca i32, align 4
  %10 = alloca i32, align 4
  %11 = alloca i32, align 4
  %12 = alloca i32, align 4
  store ptr %0, ptr %5, align 8, !tbaa !3
  store i32 %1, ptr %6, align 4, !tbaa !25
  store i32 %2, ptr %7, align 4, !tbaa !29
  store ptr %3, ptr %8, align 8, !tbaa !10
  %13 = load ptr, ptr %5, align 8
  %14 = load i32, ptr %6, align 4, !tbaa !25
  switch i32 %14, label %52 [
    i32 2, label %15
    i32 23, label %15
  ]

15:                                               ; preds = %4, %4
  %16 = load i32, ptr %7, align 4, !tbaa !29
  %17 = icmp ne i32 %16, 0
  br i1 %17, label %18, label %51

18:                                               ; preds = %15
  call void @llvm.lifetime.start.p0(i64 4, ptr %9) #13
  %19 = load ptr, ptr %8, align 8, !tbaa !10
  %20 = call noundef i32 @_ZNK6icu_778Calendar3getE19UCalendarDateFieldsR10UErrorCode(ptr noundef nonnull align 8 dereferenceable(192) %13, i32 noundef 5, ptr noundef nonnull align 4 dereferenceable(4) %19)
  store i32 %20, ptr %9, align 4, !tbaa !29
  %21 = load ptr, ptr %8, align 8, !tbaa !10
  %22 = load i32, ptr %21, align 4, !tbaa !30
  %23 = call noundef signext i8 @_ZL9U_FAILURE10UErrorCode(i32 noundef %22)
  %24 = icmp ne i8 %23, 0
  br i1 %24, label %25, label %26

25:                                               ; preds = %18
  store i32 2, ptr %10, align 4
  br label %48

26:                                               ; preds = %18
  call void @llvm.lifetime.start.p0(i64 4, ptr %11) #13
  %27 = load ptr, ptr %8, align 8, !tbaa !10
  %28 = call noundef i32 @_ZNK6icu_778Calendar3getE19UCalendarDateFieldsR10UErrorCode(ptr noundef nonnull align 8 dereferenceable(192) %13, i32 noundef 20, ptr noundef nonnull align 4 dereferenceable(4) %27)
  %29 = sub nsw i32 %28, 2440588
  store i32 %29, ptr %11, align 4, !tbaa !29
  %30 = load ptr, ptr %8, align 8, !tbaa !10
  %31 = load i32, ptr %30, align 4, !tbaa !30
  %32 = call noundef signext i8 @_ZL9U_FAILURE10UErrorCode(i32 noundef %31)
  %33 = icmp ne i8 %32, 0
  br i1 %33, label %34, label %35

34:                                               ; preds = %26
  store i32 2, ptr %10, align 4
  br label %47

35:                                               ; preds = %26
  call void @llvm.lifetime.start.p0(i64 4, ptr %12) #13
  %36 = load i32, ptr %11, align 4, !tbaa !29
  %37 = load i32, ptr %9, align 4, !tbaa !29
  %38 = sub nsw i32 %36, %37
  %39 = add nsw i32 %38, 1
  store i32 %39, ptr %12, align 4, !tbaa !29
  %40 = load i32, ptr %12, align 4, !tbaa !29
  %41 = load i32, ptr %9, align 4, !tbaa !29
  %42 = load i32, ptr %7, align 4, !tbaa !29
  %43 = load ptr, ptr %8, align 8, !tbaa !10
  %44 = load ptr, ptr %13, align 8, !tbaa !11
  %45 = getelementptr inbounds ptr, ptr %44, i64 56
  %46 = load ptr, ptr %45, align 8
  call void %46(ptr noundef nonnull align 8 dereferenceable(193) %13, i32 noundef %40, i32 noundef %41, i32 noundef %42, ptr noundef nonnull align 4 dereferenceable(4) %43)
  call void @llvm.lifetime.end.p0(i64 4, ptr %12) #13
  store i32 0, ptr %10, align 4
  br label %47

47:                                               ; preds = %35, %34
  call void @llvm.lifetime.end.p0(i64 4, ptr %11) #13
  br label %48

48:                                               ; preds = %47, %25
  call void @llvm.lifetime.end.p0(i64 4, ptr %9) #13
  %49 = load i32, ptr %10, align 4
  switch i32 %49, label %57 [
    i32 0, label %50
    i32 2, label %56
  ]

50:                                               ; preds = %48
  br label %51

51:                                               ; preds = %50, %15
  br label %56

52:                                               ; preds = %4
  %53 = load i32, ptr %6, align 4, !tbaa !25
  %54 = load i32, ptr %7, align 4, !tbaa !29
  %55 = load ptr, ptr %8, align 8, !tbaa !10
  call void @_ZN6icu_778Calendar3addE19UCalendarDateFieldsiR10UErrorCode(ptr noundef nonnull align 8 dereferenceable(192) %13, i32 noundef %53, i32 noundef %54, ptr noundef nonnull align 4 dereferenceable(4) %55)
  br label %56

56:                                               ; preds = %52, %51, %48
  ret void

57:                                               ; preds = %48
  unreachable
}