; Function Attrs: mustprogress uwtable
define void @_ZN6icu_7715ChineseCalendar3addE19UCalendarDateFieldsiR10UErrorCode(ptr noundef nonnull align 8 dereferenceable(193) %0, i32 noundef %1, i32 noundef %2, ptr noundef nonnull align 4 dereferenceable(4) %3) unnamed_addr #0 align 2 {
  switch i32 %1, label %19 [
    i32 2, label %5
    i32 23, label %5
  ]

5:                                                ; preds = %4, %4
  %.not = icmp eq i32 %2, 0
  br i1 %.not, label %20, label %6

6:                                                ; preds = %5
  %7 = tail call noundef i32 @_ZNK6icu_778Calendar3getE19UCalendarDateFieldsR10UErrorCode(ptr noundef nonnull align 8 dereferenceable(192) %0, i32 noundef 5, ptr noundef nonnull align 4 dereferenceable(4) %3)
  %8 = load i32, ptr %3, align 4, !tbaa !21
  %9 = icmp slt i32 %8, 1
  br i1 %9, label %10, label %20

10:                                               ; preds = %6
  %11 = tail call noundef i32 @_ZNK6icu_778Calendar3getE19UCalendarDateFieldsR10UErrorCode(ptr noundef nonnull align 8 dereferenceable(192) %0, i32 noundef 20, ptr noundef nonnull align 4 dereferenceable(4) %3)
  %12 = load i32, ptr %3, align 4, !tbaa !21
  %13 = icmp slt i32 %12, 1
  br i1 %13, label %14, label %20

14:                                               ; preds = %10
  %reass.sub = sub i32 %11, %7
  %15 = add i32 %reass.sub, -2440587
  %16 = load ptr, ptr %0, align 8, !tbaa !3
  %17 = getelementptr inbounds nuw i8, ptr %16, i64 448
  %18 = load ptr, ptr %17, align 8
  tail call void %18(ptr noundef nonnull align 8 dereferenceable(193) %0, i32 noundef %15, i32 noundef %7, i32 noundef %2, ptr noundef nonnull align 4 dereferenceable(4) %3)
  br label %20

19:                                               ; preds = %4
  tail call void @_ZN6icu_778Calendar3addE19UCalendarDateFieldsiR10UErrorCode(ptr noundef nonnull align 8 dereferenceable(192) %0, i32 noundef %1, i32 noundef %2, ptr noundef nonnull align 4 dereferenceable(4) %3)
  br label %20

20:                                               ; preds = %6, %10, %14, %5, %19
  ret void
}